target datalayout = "e-m:e-p270:32:32-p271:32:32-p272:64:64-i64:64-i128:128-f80:128-n8:16:32:64-S128"
target triple = "x86_64-pc-linux-gnu"

@.str.4 = private unnamed_addr constant [5 x i8] c"blas\00", align 1
@.str.5 = private unnamed_addr constant [5 x i8] c"cann\00", align 1
@.str.6 = private unnamed_addr constant [5 x i8] c"cuda\00", align 1
@.str.7 = private unnamed_addr constant [4 x i8] c"hip\00", align 1
@.str.8 = private unnamed_addr constant [8 x i8] c"kompute\00", align 1
@.str.9 = private unnamed_addr constant [6 x i8] c"metal\00", align 1
@.str.10 = private unnamed_addr constant [4 x i8] c"rpc\00", align 1
@.str.11 = private unnamed_addr constant [5 x i8] c"sycl\00", align 1
@.str.12 = private unnamed_addr constant [7 x i8] c"vulkan\00", align 1
@.str.13 = private unnamed_addr constant [7 x i8] c"opencl\00", align 1
@.str.14 = private unnamed_addr constant [5 x i8] c"musa\00", align 1
@.str.15 = private unnamed_addr constant [4 x i8] c"cpu\00", align 1
@.str.16 = private unnamed_addr constant [18 x i8] c"GGML_BACKEND_PATH\00", align 1

; Function Attrs: mustprogress uwtable
define void @ggml_backend_load_all_from_path(ptr noundef %0) #0 {
  %2 = alloca ptr, align 8
  %3 = alloca i8, align 1
  %4 = alloca ptr, align 8
  store ptr %0, ptr %2, align 8, !tbaa !38
  call void @llvm.lifetime.start.p0(i64 1, ptr %3) #6
  store i8 1, ptr %3, align 1, !tbaa !55
  %5 = load i8, ptr %3, align 1, !tbaa !55, !range !57, !noundef !58
  %6 = trunc i8 %5 to i1
  %7 = load ptr, ptr %2, align 8, !tbaa !38
  %8 = call noundef ptr @_ZL22ggml_backend_load_bestPKcbS0_(ptr noundef @.str.4, i1 noundef zeroext %6, ptr noundef %7)
  %9 = load i8, ptr %3, align 1, !tbaa !55, !range !57, !noundef !58
  %10 = trunc i8 %9 to i1
  %11 = load ptr, ptr %2, align 8, !tbaa !38
  %12 = call noundef ptr @_ZL22ggml_backend_load_bestPKcbS0_(ptr noundef @.str.5, i1 noundef zeroext %10, ptr noundef %11)
  %13 = load i8, ptr %3, align 1, !tbaa !55, !range !57, !noundef !58
  %14 = trunc i8 %13 to i1
  %15 = load ptr, ptr %2, align 8, !tbaa !38
  %16 = call noundef ptr @_ZL22ggml_backend_load_bestPKcbS0_(ptr noundef @.str.6, i1 noundef zeroext %14, ptr noundef %15)
  %17 = load i8, ptr %3, align 1, !tbaa !55, !range !57, !noundef !58
  %18 = trunc i8 %17 to i1
  %19 = load ptr, ptr %2, align 8, !tbaa !38
  %20 = call noundef ptr @_ZL22ggml_backend_load_bestPKcbS0_(ptr noundef @.str.7, i1 noundef zeroext %18, ptr noundef %19)
  %21 = load i8, ptr %3, align 1, !tbaa !55, !range !57, !noundef !58
  %22 = trunc i8 %21 to i1
  %23 = load ptr, ptr %2, align 8, !tbaa !38
  %24 = call noundef ptr @_ZL22ggml_backend_load_bestPKcbS0_(ptr noundef @.str.8, i1 noundef zeroext %22, ptr noundef %23)
  %25 = load i8, ptr %3, align 1, !tbaa !55, !range !57, !noundef !58
  %26 = trunc i8 %25 to i1
  %27 = load ptr, ptr %2, align 8, !tbaa !38
  %28 = call noundef ptr @_ZL22ggml_backend_load_bestPKcbS0_(ptr noundef @.str.9, i1 noundef zeroext %26, ptr noundef %27)
  %29 = load i8, ptr %3, align 1, !tbaa !55, !range !57, !noundef !58
  %30 = trunc i8 %29 to i1
  %31 = load ptr, ptr %2, align 8, !tbaa !38
  %32 = call noundef ptr @_ZL22ggml_backend_load_bestPKcbS0_(ptr noundef @.str.10, i1 noundef zeroext %30, ptr noundef %31)
  %33 = load i8, ptr %3, align 1, !tbaa !55, !range !57, !noundef !58
  %34 = trunc i8 %33 to i1
  %35 = load ptr, ptr %2, align 8, !tbaa !38
  %36 = call noundef ptr @_ZL22ggml_backend_load_bestPKcbS0_(ptr noundef @.str.11, i1 noundef zeroext %34, ptr noundef %35)
  %37 = load i8, ptr %3, align 1, !tbaa !55, !range !57, !noundef !58
  %38 = trunc i8 %37 to i1
  %39 = load ptr, ptr %2, align 8, !tbaa !38
  %40 = call noundef ptr @_ZL22ggml_backend_load_bestPKcbS0_(ptr noundef @.str.12, i1 noundef zeroext %38, ptr noundef %39)
  %41 = load i8, ptr %3, align 1, !tbaa !55, !range !57, !noundef !58
  %42 = trunc i8 %41 to i1
  %43 = load ptr, ptr %2, align 8, !tbaa !38
  %44 = call noundef ptr @_ZL22ggml_backend_load_bestPKcbS0_(ptr noundef @.str.13, i1 noundef zeroext %42, ptr noundef %43)
  %45 = load i8, ptr %3, align 1, !tbaa !55, !range !57, !noundef !58
  %46 = trunc i8 %45 to i1
  %47 = load ptr, ptr %2, align 8, !tbaa !38
  %48 = call noundef ptr @_ZL22ggml_backend_load_bestPKcbS0_(ptr noundef @.str.14, i1 noundef zeroext %46, ptr noundef %47)
  %49 = load i8, ptr %3, align 1, !tbaa !55, !range !57, !noundef !58
  %50 = trunc i8 %49 to i1
  %51 = load ptr, ptr %2, align 8, !tbaa !38
  %52 = call noundef ptr @_ZL22ggml_backend_load_bestPKcbS0_(ptr noundef @.str.15, i1 noundef zeroext %50, ptr noundef %51)
  call void @llvm.lifetime.start.p0(i64 8, ptr %4) #6
  %53 = call ptr @getenv(ptr noundef @.str.16) #6
  store ptr %53, ptr %4, align 8, !tbaa !38
  %54 = load ptr, ptr %4, align 8, !tbaa !38
  %55 = icmp ne ptr %54, null
  br i1 %55, label %56, label %59

56:                                               ; preds = %1
  %57 = load ptr, ptr %4, align 8, !tbaa !38
  %58 = call ptr @ggml_backend_load(ptr noundef %57)
  br label %59

59:                                               ; preds = %56, %1
  call void @llvm.lifetime.end.p0(i64 8, ptr %4) #6
  call void @llvm.lifetime.end.p0(i64 1, ptr %3) #6
  ret void
}