; Function Attrs: mustprogress uwtable
define void @ggml_backend_load_all_from_path(ptr noundef %0) local_unnamed_addr #0 {
  tail call fastcc void @_ZL22ggml_backend_load_bestPKcbS0_(ptr noundef nonnull @.str.4, ptr noundef %0)
  tail call fastcc void @_ZL22ggml_backend_load_bestPKcbS0_(ptr noundef nonnull @.str.5, ptr noundef %0)
  tail call fastcc void @_ZL22ggml_backend_load_bestPKcbS0_(ptr noundef nonnull @.str.6, ptr noundef %0)
  tail call fastcc void @_ZL22ggml_backend_load_bestPKcbS0_(ptr noundef nonnull @.str.7, ptr noundef %0)
  tail call fastcc void @_ZL22ggml_backend_load_bestPKcbS0_(ptr noundef nonnull @.str.8, ptr noundef %0)
  tail call fastcc void @_ZL22ggml_backend_load_bestPKcbS0_(ptr noundef nonnull @.str.9, ptr noundef %0)
  tail call fastcc void @_ZL22ggml_backend_load_bestPKcbS0_(ptr noundef nonnull @.str.10, ptr noundef %0)
  tail call fastcc void @_ZL22ggml_backend_load_bestPKcbS0_(ptr noundef nonnull @.str.11, ptr noundef %0)
  tail call fastcc void @_ZL22ggml_backend_load_bestPKcbS0_(ptr noundef nonnull @.str.12, ptr noundef %0)
  tail call fastcc void @_ZL22ggml_backend_load_bestPKcbS0_(ptr noundef nonnull @.str.13, ptr noundef %0)
  tail call fastcc void @_ZL22ggml_backend_load_bestPKcbS0_(ptr noundef nonnull @.str.14, ptr noundef %0)
  tail call fastcc void @_ZL22ggml_backend_load_bestPKcbS0_(ptr noundef nonnull @.str.15, ptr noundef %0)
  %2 = tail call ptr @getenv(ptr noundef nonnull @.str.16) #26
  %.not = icmp eq ptr %2, null
  br i1 %.not, label %5, label %3

3:                                                ; preds = %1
  %4 = tail call ptr @ggml_backend_load(ptr noundef nonnull %2)
  br label %5

5:                                                ; preds = %3, %1
  ret void
}